target datalayout = "e-m:e-p270:32:32-p271:32:32-p272:64:64-i64:64-i128:128-f80:128-n8:16:32:64-S128"
target triple = "x86_64-pc-linux-gnu"

%struct.FT_GlyphRec_ = type { ptr, ptr, i32, %struct.FT_Vector_ }
%struct.FT_Vector_ = type { i64, i64 }
%struct.FT_LibraryRec_ = type { ptr, i32, i32, i32, i32, [32 x ptr], %struct.FT_ListRec_, ptr, ptr, [4 x ptr], [3 x %struct.FT_Vector_], i32 }
%struct.FT_ListRec_ = type { ptr, ptr }
%struct.FT_Glyph_Class_ = type { i64, i32, ptr, ptr, ptr, ptr, ptr, ptr }

; Function Attrs: nounwind uwtable
define void @FT_Done_Glyph(ptr noundef %0) #0 {
  %2 = alloca ptr, align 8
  %3 = alloca ptr, align 8
  %4 = alloca ptr, align 8
  store ptr %0, ptr %2, align 8, !tbaa !3
  %5 = load ptr, ptr %2, align 8, !tbaa !3
  %6 = icmp ne ptr %5, null
  br i1 %6, label %7, label %31

7:                                                ; preds = %1
  call void @llvm.lifetime.start.p0(i64 8, ptr %3) #6
  %8 = load ptr, ptr %2, align 8, !tbaa !3
  %9 = getelementptr inbounds nuw %struct.FT_GlyphRec_, ptr %8, i32 0, i32 0
  %10 = load ptr, ptr %9, align 8, !tbaa !14
  %11 = getelementptr inbounds nuw %struct.FT_LibraryRec_, ptr %10, i32 0, i32 0
  %12 = load ptr, ptr %11, align 8, !tbaa !77
  store ptr %12, ptr %3, align 8, !tbaa !84
  call void @llvm.lifetime.start.p0(i64 8, ptr %4) #6
  %13 = load ptr, ptr %2, align 8, !tbaa !3
  %14 = getelementptr inbounds nuw %struct.FT_GlyphRec_, ptr %13, i32 0, i32 1
  %15 = load ptr, ptr %14, align 8, !tbaa !116
  store ptr %15, ptr %4, align 8, !tbaa !117
  %16 = load ptr, ptr %4, align 8, !tbaa !117
  %17 = getelementptr inbounds nuw %struct.FT_Glyph_Class_, ptr %16, i32 0, i32 3
  %18 = load ptr, ptr %17, align 8, !tbaa !122
  %19 = icmp ne ptr %18, null
  br i1 %19, label %20, label %25

20:                                               ; preds = %7
  %21 = load ptr, ptr %4, align 8, !tbaa !117
  %22 = getelementptr inbounds nuw %struct.FT_Glyph_Class_, ptr %21, i32 0, i32 3
  %23 = load ptr, ptr %22, align 8, !tbaa !122
  %24 = load ptr, ptr %2, align 8, !tbaa !3
  call void %23(ptr noundef %24)
  br label %25

25:                                               ; preds = %20, %7
  br label %26

26:                                               ; preds = %25
  %27 = load ptr, ptr %3, align 8, !tbaa !84
  %28 = load ptr, ptr %2, align 8, !tbaa !3
  call void @ft_mem_free(ptr noundef %27, ptr noundef %28)
  store ptr null, ptr %2, align 8, !tbaa !3
  br label %29

29:                                               ; preds = %26
  br label %30

30:                                               ; preds = %29
  call void @llvm.lifetime.end.p0(i64 8, ptr %4) #6
  call void @llvm.lifetime.end.p0(i64 8, ptr %3) #6
  br label %31

31:                                               ; preds = %30, %1
  ret void
}

; Function Attrs: nounwind uwtable
define internal i32 @ft_new_glyph(ptr noundef %0, ptr noundef %1, ptr noundef %2) #0 {
  %4 = alloca ptr, align 8
  %5 = alloca ptr, align 8
  %6 = alloca ptr, align 8
  %7 = alloca ptr, align 8
  %8 = alloca i32, align 4
  %9 = alloca ptr, align 8
  store ptr %0, ptr %4, align 8, !tbaa !20
  store ptr %1, ptr %5, align 8, !tbaa !117
  store ptr %2, ptr %6, align 8, !tbaa !114
  call void @llvm.lifetime.start.p0(i64 8, ptr %7) #6
  %10 = load ptr, ptr %4, align 8, !tbaa !20
  %11 = getelementptr inbounds nuw %struct.FT_LibraryRec_, ptr %10, i32 0, i32 0
  %12 = load ptr, ptr %11, align 8, !tbaa !77
  store ptr %12, ptr %7, align 8, !tbaa !84
  call void @llvm.lifetime.start.p0(i64 4, ptr %8) #6
  call void @llvm.lifetime.start.p0(i64 8, ptr %9) #6
  store ptr null, ptr %9, align 8, !tbaa !3
  %13 = load ptr, ptr %6, align 8, !tbaa !114
  store ptr null, ptr %13, align 8, !tbaa !3
  %14 = load ptr, ptr %7, align 8, !tbaa !84
  %15 = load ptr, ptr %5, align 8, !tbaa !117
  %16 = getelementptr inbounds nuw %struct.FT_Glyph_Class_, ptr %15, i32 0, i32 0
  %17 = load i64, ptr %16, align 8, !tbaa !120
  %18 = call ptr @ft_mem_alloc(ptr noundef %14, i64 noundef %17, ptr noundef %8)
  store ptr %18, ptr %9, align 8, !tbaa !3
  %19 = load i32, ptr %8, align 4, !tbaa !12
  %20 = icmp ne i32 %19, 0
  br i1 %20, label %35, label %21

21:                                               ; preds = %3
  %22 = load ptr, ptr %4, align 8, !tbaa !20
  %23 = load ptr, ptr %9, align 8, !tbaa !3
  %24 = getelementptr inbounds nuw %struct.FT_GlyphRec_, ptr %23, i32 0, i32 0
  store ptr %22, ptr %24, align 8, !tbaa !14
  %25 = load ptr, ptr %5, align 8, !tbaa !117
  %26 = load ptr, ptr %9, align 8, !tbaa !3
  %27 = getelementptr inbounds nuw %struct.FT_GlyphRec_, ptr %26, i32 0, i32 1
  store ptr %25, ptr %27, align 8, !tbaa !116
  %28 = load ptr, ptr %5, align 8, !tbaa !117
  %29 = getelementptr inbounds nuw %struct.FT_Glyph_Class_, ptr %28, i32 0, i32 1
  %30 = load i32, ptr %29, align 8, !tbaa !121
  %31 = load ptr, ptr %9, align 8, !tbaa !3
  %32 = getelementptr inbounds nuw %struct.FT_GlyphRec_, ptr %31, i32 0, i32 2
  store i32 %30, ptr %32, align 8, !tbaa !107
  %33 = load ptr, ptr %9, align 8, !tbaa !3
  %34 = load ptr, ptr %6, align 8, !tbaa !114
  store ptr %33, ptr %34, align 8, !tbaa !3
  br label %35

35:                                               ; preds = %21, %3
  %36 = load i32, ptr %8, align 4, !tbaa !12
  call void @llvm.lifetime.end.p0(i64 8, ptr %9) #6
  call void @llvm.lifetime.end.p0(i64 4, ptr %8) #6
  call void @llvm.lifetime.end.p0(i64 8, ptr %7) #6
  ret i32 %36
}

; Function Attrs: nounwind uwtable
define i32 @FT_Glyph_Copy(ptr noundef %0, ptr noundef %1) #0 {
  %3 = alloca ptr, align 8
  %4 = alloca ptr, align 8
  %5 = alloca ptr, align 8
  %6 = alloca i32, align 4
  %7 = alloca ptr, align 8
  store ptr %0, ptr %3, align 8, !tbaa !3
  store ptr %1, ptr %4, align 8, !tbaa !114
  call void @llvm.lifetime.start.p0(i64 8, ptr %5) #6
  call void @llvm.lifetime.start.p0(i64 4, ptr %6) #6
  call void @llvm.lifetime.start.p0(i64 8, ptr %7) #6
  %8 = load ptr, ptr %4, align 8, !tbaa !114
  %9 = icmp ne ptr %8, null
  br i1 %9, label %10, label %18

10:                                               ; preds = %2
  %11 = load ptr, ptr %3, align 8, !tbaa !3
  %12 = icmp ne ptr %11, null
  br i1 %12, label %13, label %18

13:                                               ; preds = %10
  %14 = load ptr, ptr %3, align 8, !tbaa !3
  %15 = getelementptr inbounds nuw %struct.FT_GlyphRec_, ptr %14, i32 0, i32 1
  %16 = load ptr, ptr %15, align 8, !tbaa !116
  %17 = icmp ne ptr %16, null
  br i1 %17, label %19, label %18

18:                                               ; preds = %13, %10, %2
  store i32 6, ptr %6, align 4, !tbaa !12
  br label %71

19:                                               ; preds = %13
  %20 = load ptr, ptr %4, align 8, !tbaa !114
  store ptr null, ptr %20, align 8, !tbaa !3
  %21 = load ptr, ptr %3, align 8, !tbaa !3
  %22 = icmp ne ptr %21, null
  br i1 %22, label %23, label %28

23:                                               ; preds = %19
  %24 = load ptr, ptr %3, align 8, !tbaa !3
  %25 = getelementptr inbounds nuw %struct.FT_GlyphRec_, ptr %24, i32 0, i32 1
  %26 = load ptr, ptr %25, align 8, !tbaa !116
  %27 = icmp ne ptr %26, null
  br i1 %27, label %29, label %28

28:                                               ; preds = %23, %19
  store i32 6, ptr %6, align 4, !tbaa !12
  br label %71

29:                                               ; preds = %23
  %30 = load ptr, ptr %3, align 8, !tbaa !3
  %31 = getelementptr inbounds nuw %struct.FT_GlyphRec_, ptr %30, i32 0, i32 1
  %32 = load ptr, ptr %31, align 8, !tbaa !116
  store ptr %32, ptr %7, align 8, !tbaa !117
  %33 = load ptr, ptr %3, align 8, !tbaa !3
  %34 = getelementptr inbounds nuw %struct.FT_GlyphRec_, ptr %33, i32 0, i32 0
  %35 = load ptr, ptr %34, align 8, !tbaa !14
  %36 = load ptr, ptr %7, align 8, !tbaa !117
  %37 = call i32 @ft_new_glyph(ptr noundef %35, ptr noundef %36, ptr noundef %5)
  store i32 %37, ptr %6, align 4, !tbaa !12
  %38 = load i32, ptr %6, align 4, !tbaa !12
  %39 = icmp ne i32 %38, 0
  br i1 %39, label %40, label %41

40:                                               ; preds = %29
  br label %71

41:                                               ; preds = %29
  %42 = load ptr, ptr %5, align 8, !tbaa !3
  %43 = getelementptr inbounds nuw %struct.FT_GlyphRec_, ptr %42, i32 0, i32 3
  %44 = load ptr, ptr %3, align 8, !tbaa !3
  %45 = getelementptr inbounds nuw %struct.FT_GlyphRec_, ptr %44, i32 0, i32 3
  call void @llvm.memcpy.p0.p0.i64(ptr align 8 %43, ptr align 8 %45, i64 16, i1 false), !tbaa.struct !105
  %46 = load ptr, ptr %3, align 8, !tbaa !3
  %47 = getelementptr inbounds nuw %struct.FT_GlyphRec_, ptr %46, i32 0, i32 2
  %48 = load i32, ptr %47, align 8, !tbaa !107
  %49 = load ptr, ptr %5, align 8, !tbaa !3
  %50 = getelementptr inbounds nuw %struct.FT_GlyphRec_, ptr %49, i32 0, i32 2
  store i32 %48, ptr %50, align 8, !tbaa !107
  %51 = load ptr, ptr %7, align 8, !tbaa !117
  %52 = getelementptr inbounds nuw %struct.FT_Glyph_Class_, ptr %51, i32 0, i32 4
  %53 = load ptr, ptr %52, align 8, !tbaa !118
  %54 = icmp ne ptr %53, null
  br i1 %54, label %55, label %62

55:                                               ; preds = %41
  %56 = load ptr, ptr %7, align 8, !tbaa !117
  %57 = getelementptr inbounds nuw %struct.FT_Glyph_Class_, ptr %56, i32 0, i32 4
  %58 = load ptr, ptr %57, align 8, !tbaa !118
  %59 = load ptr, ptr %3, align 8, !tbaa !3
  %60 = load ptr, ptr %5, align 8, !tbaa !3
  %61 = call i32 %58(ptr noundef %59, ptr noundef %60)
  store i32 %61, ptr %6, align 4, !tbaa !12
  br label %62

62:                                               ; preds = %55, %41
  %63 = load i32, ptr %6, align 4, !tbaa !12
  %64 = icmp ne i32 %63, 0
  br i1 %64, label %65, label %67

65:                                               ; preds = %62
  %66 = load ptr, ptr %5, align 8, !tbaa !3
  call void @FT_Done_Glyph(ptr noundef %66)
  br label %70

67:                                               ; preds = %62
  %68 = load ptr, ptr %5, align 8, !tbaa !3
  %69 = load ptr, ptr %4, align 8, !tbaa !114
  store ptr %68, ptr %69, align 8, !tbaa !3
  br label %70

70:                                               ; preds = %67, %65
  br label %71

71:                                               ; preds = %70, %40, %28, %18
  %72 = load i32, ptr %6, align 4, !tbaa !12
  call void @llvm.lifetime.end.p0(i64 8, ptr %7) #6
  call void @llvm.lifetime.end.p0(i64 4, ptr %6) #6
  call void @llvm.lifetime.end.p0(i64 8, ptr %5) #6
  ret i32 %72
}