; Function Attrs: nounwind uwtable
define i32 @FT_Glyph_Copy(ptr noundef %0, ptr noundef writeonly %1) local_unnamed_addr #0 {
  %3 = alloca i32, align 4
  %4 = icmp ne ptr %1, null
  %5 = icmp ne ptr %0, null
  %or.cond = and i1 %5, %4
  br i1 %or.cond, label %6, label %35

6:                                                ; preds = %2
  %7 = getelementptr inbounds nuw i8, ptr %0, i64 8
  %8 = load ptr, ptr %7, align 8, !tbaa !95
  %.not = icmp eq ptr %8, null
  br i1 %.not, label %35, label %9

9:                                                ; preds = %6
  store ptr null, ptr %1, align 8, !tbaa !96
  %10 = load ptr, ptr %0, align 8, !tbaa !3
  %11 = load ptr, ptr %10, align 8, !tbaa !61
  call void @llvm.lifetime.start.p0(i64 4, ptr nonnull %3) #6
  %12 = load i64, ptr %8, align 8, !tbaa !98
  %13 = call ptr @ft_mem_alloc(ptr noundef %11, i64 noundef %12, ptr noundef nonnull %3) #6
  %14 = load i32, ptr %3, align 4, !tbaa !38
  %.not.i = icmp eq i32 %14, 0
  br i1 %.not.i, label %15, label %ft_new_glyph.exit

ft_new_glyph.exit:                                ; preds = %9
  call void @llvm.lifetime.end.p0(i64 4, ptr nonnull %3) #6
  br label %35

15:                                               ; preds = %9
  store ptr %10, ptr %13, align 8, !tbaa !3
  %16 = getelementptr inbounds nuw i8, ptr %13, i64 8
  store ptr %8, ptr %16, align 8, !tbaa !95
  %17 = getelementptr inbounds nuw i8, ptr %8, i64 8
  %18 = load i32, ptr %17, align 8, !tbaa !100
  %19 = getelementptr inbounds nuw i8, ptr %13, i64 16
  store i32 %18, ptr %19, align 8, !tbaa !88
  call void @llvm.lifetime.end.p0(i64 4, ptr nonnull %3) #6
  %20 = getelementptr inbounds nuw i8, ptr %13, i64 24
  %21 = getelementptr inbounds nuw i8, ptr %0, i64 24
  call void @llvm.memcpy.p0.p0.i64(ptr noundef nonnull align 8 dereferenceable(16) %20, ptr noundef nonnull align 8 dereferenceable(16) %21, i64 16, i1 false), !tbaa.struct !86
  %22 = getelementptr inbounds nuw i8, ptr %0, i64 16
  %23 = load i32, ptr %22, align 8, !tbaa !88
  store i32 %23, ptr %19, align 8, !tbaa !88
  %24 = getelementptr inbounds nuw i8, ptr %8, i64 32
  %25 = load ptr, ptr %24, align 8, !tbaa !101
  %.not26 = icmp eq ptr %25, null
  br i1 %.not26, label %.thread, label %26

26:                                               ; preds = %15
  %27 = call i32 %25(ptr noundef nonnull %0, ptr noundef nonnull %13) #6
  %.not27 = icmp eq i32 %27, 0
  br i1 %.not27, label %.thread, label %28

28:                                               ; preds = %26
  %29 = load ptr, ptr %13, align 8, !tbaa !3
  %30 = load ptr, ptr %29, align 8, !tbaa !61
  %31 = load ptr, ptr %16, align 8, !tbaa !95
  %32 = getelementptr inbounds nuw i8, ptr %31, i64 24
  %33 = load ptr, ptr %32, align 8, !tbaa !102
  %.not9.i = icmp eq ptr %33, null
  br i1 %.not9.i, label %FT_Done_Glyph.exit, label %34

34:                                               ; preds = %28
  call void %33(ptr noundef nonnull %13) #6
  br label %FT_Done_Glyph.exit

FT_Done_Glyph.exit:                               ; preds = %28, %34
  call void @ft_mem_free(ptr noundef %30, ptr noundef nonnull %13) #6
  br label %35

.thread:                                          ; preds = %15, %26
  store ptr %13, ptr %1, align 8, !tbaa !96
  br label %35

35:                                               ; preds = %ft_new_glyph.exit, %2, %6, %FT_Done_Glyph.exit, %.thread
  %.0 = phi i32 [ %14, %ft_new_glyph.exit ], [ %27, %FT_Done_Glyph.exit ], [ 0, %.thread ], [ 6, %6 ], [ 6, %2 ]
  ret i32 %.0
}